target datalayout = "e-m:e-p270:32:32-p271:32:32-p272:64:64-i64:64-i128:128-f80:128-n8:16:32:64-S128"
target triple = "x86_64-pc-linux-gnu"

%"class.Ipopt::IdentityMatrix" = type { %"class.Ipopt::SymMatrix", double }
%"class.Ipopt::SymMatrix" = type { %"class.Ipopt::Matrix.base", ptr }
%"class.Ipopt::Matrix.base" = type <{ %"class.Ipopt::TaggedObject", %"class.Ipopt::SmartPtr", i32, i8 }>
%"class.Ipopt::TaggedObject" = type { %"class.Ipopt::ReferencedObject.base", %"class.Ipopt::Subject", i32, i32 }
%"class.Ipopt::ReferencedObject.base" = type <{ ptr, i32 }>
%"class.Ipopt::Subject" = type { ptr, %"class.std::vector" }
%"class.std::vector" = type { %"struct.std::_Vector_base" }
%"struct.std::_Vector_base" = type { %"struct.std::_Vector_base<Ipopt::Observer *, std::allocator<Ipopt::Observer *>>::_Vector_impl" }
%"struct.std::_Vector_base<Ipopt::Observer *, std::allocator<Ipopt::Observer *>>::_Vector_impl" = type { %"struct.std::_Vector_base<Ipopt::Observer *, std::allocator<Ipopt::Observer *>>::_Vector_impl_data" }
%"struct.std::_Vector_base<Ipopt::Observer *, std::allocator<Ipopt::Observer *>>::_Vector_impl_data" = type { ptr, ptr, ptr }
%"class.Ipopt::SmartPtr" = type { ptr }

; Function Attrs: mustprogress uwtable
define linkonce_odr void @_ZN5Ipopt6Vector13AddTwoVectorsEdRKS0_dS2_d(ptr noundef nonnull align 8 dereferenceable(205) %0, double noundef %1, ptr noundef nonnull align 8 dereferenceable(205) %2, double noundef %3, ptr noundef nonnull align 8 dereferenceable(205) %4, double noundef %5) #0 comdat align 2 {
  %7 = alloca ptr, align 8
  %8 = alloca double, align 8
  %9 = alloca ptr, align 8
  %10 = alloca double, align 8
  %11 = alloca ptr, align 8
  %12 = alloca double, align 8
  store ptr %0, ptr %7, align 8
  store double %1, ptr %8, align 8
  store ptr %2, ptr %9, align 8
  store double %3, ptr %10, align 8
  store ptr %4, ptr %11, align 8
  store double %5, ptr %12, align 8
  %13 = load ptr, ptr %7, align 8
  %14 = load double, ptr %8, align 8
  %15 = load ptr, ptr %9, align 8
  %16 = load double, ptr %10, align 8
  %17 = load ptr, ptr %11, align 8
  %18 = load double, ptr %12, align 8
  %19 = load ptr, ptr %13, align 8
  %20 = getelementptr inbounds ptr, ptr %19, i64 24
  %21 = load ptr, ptr %20, align 8
  call void %21(ptr noundef nonnull align 8 dereferenceable(205) %13, double noundef %14, ptr noundef nonnull align 8 dereferenceable(205) %15, double noundef %16, ptr noundef nonnull align 8 dereferenceable(205) %17, double noundef %18)
  call void @_ZN5Ipopt12TaggedObject13ObjectChangedEv(ptr noundef nonnull align 8 dereferenceable(56) %13)
  ret void
}

; Function Attrs: mustprogress uwtable
define linkonce_odr void @_ZN5Ipopt6Vector12AddOneVectorEdRKS0_d(ptr noundef nonnull align 8 dereferenceable(205) %0, double noundef %1, ptr noundef nonnull align 8 dereferenceable(205) %2, double noundef %3) #0 comdat align 2 {
  %5 = alloca ptr, align 8
  %6 = alloca double, align 8
  %7 = alloca ptr, align 8
  %8 = alloca double, align 8
  store ptr %0, ptr %5, align 8
  store double %1, ptr %6, align 8
  store ptr %2, ptr %7, align 8
  store double %3, ptr %8, align 8
  %9 = load ptr, ptr %5, align 8
  %10 = load double, ptr %6, align 8
  %11 = load ptr, ptr %7, align 8
  %12 = load ptr, ptr %7, align 8
  %13 = load double, ptr %8, align 8
  call void @_ZN5Ipopt6Vector13AddTwoVectorsEdRKS0_dS2_d(ptr noundef nonnull align 8 dereferenceable(205) %9, double noundef %10, ptr noundef nonnull align 8 dereferenceable(205) %11, double noundef 0.000000e+00, ptr noundef nonnull align 8 dereferenceable(205) %12, double noundef %13)
  ret void
}

; Function Attrs: mustprogress uwtable
define void @_ZNK5Ipopt14IdentityMatrix14MultVectorImplEdRKNS_6VectorEdRS1_(ptr noundef nonnull align 8 dereferenceable(88) %0, double noundef %1, ptr noundef nonnull align 8 dereferenceable(205) %2, double noundef %3, ptr noundef nonnull align 8 dereferenceable(205) %4) unnamed_addr #0 align 2 {
  %6 = alloca ptr, align 8
  %7 = alloca double, align 8
  %8 = alloca ptr, align 8
  %9 = alloca double, align 8
  %10 = alloca ptr, align 8
  store ptr %0, ptr %6, align 8
  store double %1, ptr %7, align 8
  store ptr %2, ptr %8, align 8
  store double %3, ptr %9, align 8
  store ptr %4, ptr %10, align 8
  %11 = load ptr, ptr %6, align 8
  %12 = load ptr, ptr %10, align 8
  %13 = load double, ptr %7, align 8
  %14 = getelementptr inbounds %"class.Ipopt::IdentityMatrix", ptr %11, i32 0, i32 1
  %15 = load double, ptr %14, align 8
  %16 = fmul double %13, %15
  %17 = load ptr, ptr %8, align 8
  %18 = load double, ptr %9, align 8
  call void @_ZN5Ipopt6Vector12AddOneVectorEdRKS0_d(ptr noundef nonnull align 8 dereferenceable(205) %12, double noundef %16, ptr noundef nonnull align 8 dereferenceable(205) %17, double noundef %18)
  ret void
}