; Function Attrs: mustprogress uwtable
define void @_ZNK5Ipopt14IdentityMatrix14MultVectorImplEdRKNS_6VectorEdRS1_(ptr nocapture noundef nonnull readonly align 8 dereferenceable(88) %0, double noundef %1, ptr noundef nonnull align 8 dereferenceable(205) %2, double noundef %3, ptr noundef nonnull align 8 dereferenceable(205) %4) unnamed_addr #0 align 2 {
  %6 = getelementptr inbounds i8, ptr %0, i64 80
  %7 = load double, ptr %6, align 8
  %8 = fmul double %7, %1
  %9 = load ptr, ptr %4, align 8
  %10 = getelementptr inbounds i8, ptr %9, i64 192
  %11 = load ptr, ptr %10, align 8
  tail call void %11(ptr noundef nonnull align 8 dereferenceable(205) %4, double noundef %8, ptr noundef nonnull align 8 dereferenceable(205) %2, double noundef 0.000000e+00, ptr noundef nonnull align 8 dereferenceable(205) %2, double noundef %3)
  tail call void @_ZN5Ipopt12TaggedObject13ObjectChangedEv(ptr noundef nonnull align 8 dereferenceable(56) %4)
  ret void
}